target datalayout = "e-m:e-p270:32:32-p271:32:32-p272:64:64-i64:64-i128:128-f80:128-n8:16:32:64-S128"
target triple = "x86_64-pc-linux-gnu"

; Function Attrs: null_pointer_is_valid sspstrong uwtable
define internal i32 @get_hdfsdata_message_len(ptr noundef %0, ptr noundef %1, i32 noundef %2, ptr noundef %3) #0 {
  %5 = alloca i32, align 4
  %6 = alloca ptr, align 8
  %7 = alloca ptr, align 8
  %8 = alloca i32, align 4
  %9 = alloca ptr, align 8
  store ptr %0, ptr %6, align 8
  store ptr %1, ptr %7, align 8
  store i32 %2, ptr %8, align 4
  store ptr %3, ptr %9, align 8
  %10 = load ptr, ptr %7, align 8
  %11 = call i32 @tvb_reported_length(ptr noundef %10)
  %12 = icmp ule i32 %11, 4
  br i1 %12, label %42, label %13

13:                                               ; preds = %4
  %14 = load ptr, ptr %7, align 8
  %15 = call i32 @tvb_reported_length(ptr noundef %14)
  %16 = icmp eq i32 %15, 8
  br i1 %16, label %42, label %17

17:                                               ; preds = %13
  %18 = load ptr, ptr %7, align 8
  %19 = call i32 @tvb_get_ntohl(ptr noundef %18, i32 noundef 0)
  %20 = load ptr, ptr %7, align 8
  %21 = call i32 @tvb_reported_length(ptr noundef %20)
  %22 = sub i32 %21, 21
  %23 = icmp eq i32 %19, %22
  br i1 %23, label %42, label %24

24:                                               ; preds = %17
  %25 = load ptr, ptr %7, align 8
  %26 = call i32 @tvb_reported_length(ptr noundef %25)
  %27 = icmp uge i32 %26, 36
  br i1 %27, label %28, label %33

28:                                               ; preds = %24
  %29 = load ptr, ptr %7, align 8
  %30 = call zeroext i8 @tvb_get_uint8(ptr noundef %29, i32 noundef 2)
  %31 = zext i8 %30 to i32
  %32 = icmp eq i32 %31, 81
  br i1 %32, label %42, label %33

33:                                               ; preds = %28, %24
  %34 = load ptr, ptr %7, align 8
  %35 = call i32 @tvb_reported_length(ptr noundef %34)
  %36 = icmp uge i32 %35, 35
  br i1 %36, label %37, label %45

37:                                               ; preds = %33
  %38 = load ptr, ptr %7, align 8
  %39 = call zeroext i8 @tvb_get_uint8(ptr noundef %38, i32 noundef 2)
  %40 = zext i8 %39 to i32
  %41 = icmp eq i32 %40, 80
  br i1 %41, label %42, label %45

42:                                               ; preds = %37, %28, %17, %13, %4
  %43 = load ptr, ptr %7, align 8
  %44 = call i32 @tvb_reported_length(ptr noundef %43)
  store i32 %44, ptr %5, align 4
  br label %53

45:                                               ; preds = %37, %33
  %46 = load ptr, ptr %7, align 8
  %47 = load i32, ptr %8, align 4
  %48 = add i32 %47, 15
  %49 = call i32 @tvb_get_ntohl(ptr noundef %46, i32 noundef %48)
  %50 = add i32 %49, 15
  %51 = add i32 %50, 29
  %52 = sub i32 %51, 4
  store i32 %52, ptr %5, align 4
  br label %53

53:                                               ; preds = %45, %42
  %54 = load i32, ptr %5, align 4
  ret i32 %54
}