; Function Attrs: null_pointer_is_valid sspstrong uwtable
define internal i32 @get_hdfsdata_message_len(ptr readnone captures(none) %0, ptr noundef %1, i32 noundef %2, ptr readnone captures(none) %3) #0 {
  %5 = tail call i32 @tvb_reported_length(ptr noundef %1)
  %6 = icmp ult i32 %5, 5
  br i1 %6, label %27, label %7

7:                                                ; preds = %4
  %8 = tail call i32 @tvb_reported_length(ptr noundef %1)
  %9 = icmp eq i32 %8, 8
  br i1 %9, label %27, label %10

10:                                               ; preds = %7
  %11 = tail call i32 @tvb_get_ntohl(ptr noundef %1, i32 noundef 0)
  %12 = tail call i32 @tvb_reported_length(ptr noundef %1)
  %13 = add i32 %12, -21
  %14 = icmp eq i32 %11, %13
  br i1 %14, label %27, label %15

15:                                               ; preds = %10
  %16 = tail call i32 @tvb_reported_length(ptr noundef %1)
  %17 = icmp ugt i32 %16, 35
  br i1 %17, label %18, label %21

18:                                               ; preds = %15
  %19 = tail call zeroext i8 @tvb_get_uint8(ptr noundef %1, i32 noundef 2)
  %20 = icmp eq i8 %19, 81
  br i1 %20, label %27, label %21

21:                                               ; preds = %18, %15
  %22 = tail call i32 @tvb_reported_length(ptr noundef %1)
  %23 = icmp ugt i32 %22, 34
  br i1 %23, label %24, label %29

24:                                               ; preds = %21
  %25 = tail call zeroext i8 @tvb_get_uint8(ptr noundef %1, i32 noundef 2)
  %26 = icmp eq i8 %25, 80
  br i1 %26, label %27, label %29

27:                                               ; preds = %24, %18, %10, %7, %4
  %28 = tail call i32 @tvb_reported_length(ptr noundef %1)
  br label %33

29:                                               ; preds = %24, %21
  %30 = add i32 %2, 15
  %31 = tail call i32 @tvb_get_ntohl(ptr noundef %1, i32 noundef %30)
  %32 = add i32 %31, 40
  br label %33

33:                                               ; preds = %29, %27
  %.0 = phi i32 [ %28, %27 ], [ %32, %29 ]
  ret i32 %.0
}